; Function Attrs: mustprogress nofree norecurse nosync nounwind willreturn memory(argmem: read) uwtable
define hidden noundef zeroext i1 @_ZNK4cvc58internal11NodeBuilder13nvIsAllocatedEv(ptr noundef nonnull readonly align 8 dereferenceable(116) %this) local_unnamed_addr #6 align 2 {
entry:
  %d_nv = getelementptr inbounds i8, ptr %this, i64 96
  %0 = load ptr, ptr %d_nv, align 8
  %cmp.not = icmp ne ptr %0, %this
  %cmp3 = icmp ne ptr %0, null
  %spec.select = and i1 %cmp.not, %cmp3
  ret i1 %spec.select
}